; Function Attrs: mustprogress uwtable
define noundef ptr @_ZNK6icu_776Region19getContainingRegionE11URegionType(ptr noundef nonnull readonly align 8 captures(none) dereferenceable(112) %0, i32 noundef %1) local_unnamed_addr #1 align 2 {
  %3 = alloca i32, align 4
  call void @llvm.lifetime.start.p0(i64 4, ptr nonnull %3) #19
  store i32 0, ptr %3, align 4, !tbaa !13
  %4 = load atomic i32, ptr @_ZN6icu_77L19gRegionDataInitOnceE acquire, align 4
  %.not11.i = icmp eq i32 %4, 2
  br i1 %.not11.i, label %9, label %5

5:                                                ; preds = %2
  %6 = tail call noundef signext i8 @_ZN6icu_7720umtx_initImplPreInitERNS_9UInitOnceE(ptr noundef nonnull align 4 dereferenceable(8) @_ZN6icu_77L19gRegionDataInitOnceE)
  %.not12.i = icmp eq i8 %6, 0
  br i1 %.not12.i, label %9, label %7

7:                                                ; preds = %5
  call void @_ZN6icu_776Region14loadRegionDataER10UErrorCode(ptr noundef nonnull align 4 dereferenceable(4) %3)
  %8 = load i32, ptr %3, align 4, !tbaa !13
  store i32 %8, ptr getelementptr inbounds nuw (i8, ptr @_ZN6icu_77L19gRegionDataInitOnceE, i64 4), align 4, !tbaa !98
  call void @_ZN6icu_7721umtx_initImplPostInitERNS_9UInitOnceE(ptr noundef nonnull align 4 dereferenceable(8) @_ZN6icu_77L19gRegionDataInitOnceE)
  br label %_ZN6icu_7713umtx_initOnceERNS_9UInitOnceEPFvR10UErrorCodeES3_.exit

9:                                                ; preds = %5, %2
  %10 = load i32, ptr getelementptr inbounds nuw (i8, ptr @_ZN6icu_77L19gRegionDataInitOnceE, i64 4), align 4, !tbaa !98
  %11 = icmp slt i32 %10, 1
  br i1 %11, label %_ZN6icu_7713umtx_initOnceERNS_9UInitOnceEPFvR10UErrorCodeES3_.exit, label %12

12:                                               ; preds = %9
  store i32 %10, ptr %3, align 4, !tbaa !13
  br label %_ZN6icu_7713umtx_initOnceERNS_9UInitOnceEPFvR10UErrorCodeES3_.exit

_ZN6icu_7713umtx_initOnceERNS_9UInitOnceEPFvR10UErrorCodeES3_.exit: ; preds = %7, %9, %12
  %13 = getelementptr inbounds nuw i8, ptr %0, i64 88
  %14 = load ptr, ptr %13, align 8, !tbaa !95
  %15 = icmp eq ptr %14, null
  br i1 %15, label %22, label %16

16:                                               ; preds = %_ZN6icu_7713umtx_initOnceERNS_9UInitOnceEPFvR10UErrorCodeES3_.exit
  %17 = getelementptr inbounds nuw i8, ptr %14, i64 84
  %18 = load i32, ptr %17, align 4, !tbaa !59
  %19 = icmp eq i32 %18, %1
  br i1 %19, label %22, label %20

20:                                               ; preds = %16
  %21 = call noundef ptr @_ZNK6icu_776Region19getContainingRegionE11URegionType(ptr noundef nonnull align 8 dereferenceable(112) %14, i32 noundef %1)
  br label %22

22:                                               ; preds = %20, %16, %_ZN6icu_7713umtx_initOnceERNS_9UInitOnceEPFvR10UErrorCodeES3_.exit
  %.0 = phi ptr [ null, %_ZN6icu_7713umtx_initOnceERNS_9UInitOnceEPFvR10UErrorCodeES3_.exit ], [ %21, %20 ], [ %14, %16 ]
  call void @llvm.lifetime.end.p0(i64 4, ptr nonnull %3) #19
  ret ptr %.0
}